target datalayout = "e-m:e-p270:32:32-p271:32:32-p272:64:64-i64:64-i128:128-f80:128-n8:16:32:64-S128"
target triple = "x86_64-pc-linux-gnu"

%struct.hwloc_topology = type { i32, i32, i32, ptr, ptr, i64, [20 x i32], [20 x i32], i64, i64, i32, ptr, i64, ptr, i64, [6 x %struct.hwloc_special_level_s], ptr, ptr, %struct.hwloc_binding_hooks, %struct.hwloc_topology_support, %struct.hwloc_infos_s, ptr, ptr, i32, ptr, ptr, i32, i32, ptr, i32, i32, ptr, i32, i32, i32, [5 x float], i32, ptr, ptr, i32, i32, ptr, i32, %struct.hwloc_numanode_attr_s, i32, i32, ptr, i64, i32, ptr, ptr, ptr }
%struct.hwloc_special_level_s = type { i32, ptr, ptr, ptr }
%struct.hwloc_binding_hooks = type { ptr, ptr, ptr, ptr, ptr, ptr, ptr, ptr, ptr, ptr, ptr, ptr, ptr, ptr, ptr, ptr, ptr, ptr, ptr, ptr, ptr, ptr, ptr, ptr }
%struct.hwloc_topology_support = type { ptr, ptr, ptr, ptr }
%struct.hwloc_infos_s = type { ptr, i32, i32 }
%struct.hwloc_numanode_attr_s = type { i64, i32, ptr }

; Function Attrs: nounwind uwtable
define hidden void @hwloc_free_object_and_children(ptr noundef %0) #0 {
  %2 = alloca ptr, align 8
  store ptr %0, ptr %2, align 8, !tbaa !37
  %3 = load ptr, ptr %2, align 8, !tbaa !37
  %4 = icmp ne ptr %3, null
  br i1 %4, label %5, label %6

5:                                                ; preds = %1
  call void @unlink_and_free_object_and_children(ptr noundef %2)
  br label %6

6:                                                ; preds = %5, %1
  ret void
}

; Function Attrs: nounwind uwtable
define hidden void @hwloc_topology_clear(ptr noundef %0) #0 {
  %2 = alloca ptr, align 8
  %3 = alloca i32, align 4
  store ptr %0, ptr %2, align 8, !tbaa !3
  call void @llvm.lifetime.start.p0(i64 4, ptr %3) #14
  %4 = load ptr, ptr %2, align 8, !tbaa !3
  call void @hwloc_internal_cpukinds_destroy(ptr noundef %4)
  %5 = load ptr, ptr %2, align 8, !tbaa !3
  call void @hwloc_internal_distances_destroy(ptr noundef %5)
  %6 = load ptr, ptr %2, align 8, !tbaa !3
  call void @hwloc_internal_memattrs_destroy(ptr noundef %6)
  %7 = load ptr, ptr %2, align 8, !tbaa !3
  %8 = getelementptr inbounds nuw %struct.hwloc_topology, ptr %7, i32 0, i32 4
  %9 = load ptr, ptr %8, align 8, !tbaa !51
  %10 = getelementptr inbounds ptr, ptr %9, i64 0
  %11 = load ptr, ptr %10, align 8, !tbaa !52
  %12 = getelementptr inbounds ptr, ptr %11, i64 0
  %13 = load ptr, ptr %12, align 8, !tbaa !37
  call void @hwloc_free_object_and_children(ptr noundef %13)
  %14 = load ptr, ptr %2, align 8, !tbaa !3
  %15 = getelementptr inbounds nuw %struct.hwloc_topology, ptr %14, i32 0, i32 16
  %16 = load ptr, ptr %15, align 8, !tbaa !94
  call void @hwloc_bitmap_free(ptr noundef %16)
  %17 = load ptr, ptr %2, align 8, !tbaa !3
  %18 = getelementptr inbounds nuw %struct.hwloc_topology, ptr %17, i32 0, i32 17
  %19 = load ptr, ptr %18, align 8, !tbaa !95
  call void @hwloc_bitmap_free(ptr noundef %19)
  store i32 0, ptr %3, align 4, !tbaa !33
  br label %20

20:                                               ; preds = %34, %1
  %21 = load i32, ptr %3, align 4, !tbaa !33
  %22 = load ptr, ptr %2, align 8, !tbaa !3
  %23 = getelementptr inbounds nuw %struct.hwloc_topology, ptr %22, i32 0, i32 1
  %24 = load i32, ptr %23, align 4, !tbaa !100
  %25 = icmp ult i32 %21, %24
  br i1 %25, label %26, label %37

26:                                               ; preds = %20
  %27 = load ptr, ptr %2, align 8, !tbaa !3
  %28 = getelementptr inbounds nuw %struct.hwloc_topology, ptr %27, i32 0, i32 4
  %29 = load ptr, ptr %28, align 8, !tbaa !51
  %30 = load i32, ptr %3, align 4, !tbaa !33
  %31 = zext i32 %30 to i64
  %32 = getelementptr inbounds nuw ptr, ptr %29, i64 %31
  %33 = load ptr, ptr %32, align 8, !tbaa !52
  call void @free(ptr noundef %33) #14
  br label %34

34:                                               ; preds = %26
  %35 = load i32, ptr %3, align 4, !tbaa !33
  %36 = add i32 %35, 1
  store i32 %36, ptr %3, align 4, !tbaa !33
  br label %20, !llvm.loop !199

37:                                               ; preds = %20
  store i32 0, ptr %3, align 4, !tbaa !33
  br label %38

38:                                               ; preds = %49, %37
  %39 = load i32, ptr %3, align 4, !tbaa !33
  %40 = icmp ult i32 %39, 6
  br i1 %40, label %41, label %52

41:                                               ; preds = %38
  %42 = load ptr, ptr %2, align 8, !tbaa !3
  %43 = getelementptr inbounds nuw %struct.hwloc_topology, ptr %42, i32 0, i32 15
  %44 = load i32, ptr %3, align 4, !tbaa !33
  %45 = zext i32 %44 to i64
  %46 = getelementptr inbounds nuw [6 x %struct.hwloc_special_level_s], ptr %43, i64 0, i64 %45
  %47 = getelementptr inbounds nuw %struct.hwloc_special_level_s, ptr %46, i32 0, i32 1
  %48 = load ptr, ptr %47, align 8, !tbaa !105
  call void @free(ptr noundef %48) #14
  br label %49

49:                                               ; preds = %41
  %50 = load i32, ptr %3, align 4, !tbaa !33
  %51 = add i32 %50, 1
  store i32 %51, ptr %3, align 4, !tbaa !33
  br label %38, !llvm.loop !200

52:                                               ; preds = %38
  %53 = load ptr, ptr %2, align 8, !tbaa !3
  %54 = getelementptr inbounds nuw %struct.hwloc_topology, ptr %53, i32 0, i32 43
  %55 = getelementptr inbounds nuw %struct.hwloc_numanode_attr_s, ptr %54, i32 0, i32 2
  %56 = load ptr, ptr %55, align 8, !tbaa !194
  call void @free(ptr noundef %56) #14
  call void @llvm.lifetime.end.p0(i64 4, ptr %3) #14
  ret void
}