; Function Attrs: nounwind uwtable
define hidden void @hwloc_topology_clear(ptr noundef %0) local_unnamed_addr #5 {
  %2 = alloca ptr, align 8
  tail call void @hwloc_internal_cpukinds_destroy(ptr noundef %0) #34
  tail call void @hwloc_internal_distances_destroy(ptr noundef %0) #34
  tail call void @hwloc_internal_memattrs_destroy(ptr noundef %0) #34
  %3 = getelementptr inbounds nuw i8, ptr %0, i64 24
  %4 = load ptr, ptr %3, align 8, !tbaa !48
  %5 = load ptr, ptr %4, align 8, !tbaa !49
  %6 = load ptr, ptr %5, align 8, !tbaa !50
  call void @llvm.lifetime.start.p0(i64 8, ptr nonnull %2)
  store ptr %6, ptr %2, align 8, !tbaa !50
  %.not.i = icmp eq ptr %6, null
  br i1 %.not.i, label %hwloc_free_object_and_children.exit, label %7

7:                                                ; preds = %1
  call fastcc void @unlink_and_free_object_and_children(ptr noundef nonnull %2)
  br label %hwloc_free_object_and_children.exit

hwloc_free_object_and_children.exit:              ; preds = %1, %7
  call void @llvm.lifetime.end.p0(i64 8, ptr nonnull %2)
  %8 = getelementptr inbounds nuw i8, ptr %0, i64 448
  %9 = load ptr, ptr %8, align 8, !tbaa !100
  tail call void @hwloc_bitmap_free(ptr noundef %9) #34
  %10 = getelementptr inbounds nuw i8, ptr %0, i64 456
  %11 = load ptr, ptr %10, align 8, !tbaa !101
  tail call void @hwloc_bitmap_free(ptr noundef %11) #34
  %12 = getelementptr inbounds nuw i8, ptr %0, i64 4
  %13 = load i32, ptr %12, align 4, !tbaa !106
  %.not = icmp eq i32 %13, 0
  br i1 %.not, label %.preheader, label %.lr.ph

.preheader:                                       ; preds = %.lr.ph, %hwloc_free_object_and_children.exit
  %14 = getelementptr i8, ptr %0, i64 264
  br label %21

.lr.ph:                                           ; preds = %hwloc_free_object_and_children.exit, %.lr.ph
  %indvars.iv = phi i64 [ %indvars.iv.next, %.lr.ph ], [ 0, %hwloc_free_object_and_children.exit ]
  %15 = load ptr, ptr %3, align 8, !tbaa !48
  %16 = getelementptr inbounds nuw ptr, ptr %15, i64 %indvars.iv
  %17 = load ptr, ptr %16, align 8, !tbaa !49
  tail call void @free(ptr noundef %17) #34
  %indvars.iv.next = add nuw nsw i64 %indvars.iv, 1
  %18 = load i32, ptr %12, align 4, !tbaa !106
  %19 = zext i32 %18 to i64
  %20 = icmp samesign ult i64 %indvars.iv.next, %19
  br i1 %20, label %.lr.ph, label %.preheader, !llvm.loop !193

21:                                               ; preds = %.preheader, %21
  %indvars.iv18 = phi i64 [ 0, %.preheader ], [ %indvars.iv.next19, %21 ]
  %22 = shl nuw nsw i64 %indvars.iv18, 5
  %23 = getelementptr i8, ptr %14, i64 %22
  %24 = load ptr, ptr %23, align 8, !tbaa !111
  tail call void @free(ptr noundef %24) #34
  %indvars.iv.next19 = add nuw nsw i64 %indvars.iv18, 1
  %exitcond.not = icmp eq i64 %indvars.iv.next19, 6
  br i1 %exitcond.not, label %25, label %21, !llvm.loop !194

25:                                               ; preds = %21
  %26 = getelementptr inbounds nuw i8, ptr %0, i64 872
  %27 = load ptr, ptr %26, align 8, !tbaa !189
  tail call void @free(ptr noundef %27) #34
  ret void
}